target datalayout = "e-m:e-p270:32:32-p271:32:32-p272:64:64-i64:64-i128:128-f80:128-n8:16:32:64-S128"
target triple = "x86_64-pc-linux-gnu"

%class.mpz = type { i32, i8, ptr }
%class.svector.1 = type { %class.vector.2 }
%class.vector.2 = type { ptr }
%"class.upolynomial::core_manager" = type { ptr, %class.mpzzp_manager, %class.svector.1, %class.svector.1, %class.svector.1, %class.svector.1, %class.svector.1, %class.svector.1, %class.svector.1, [6 x %class.svector.1], %class.svector.1, %class.svector.1, %class.svector.1 }
%class.mpzzp_manager = type { ptr, i8, %class.mpz, %class.mpz, %class.mpz, i8, %class.mpz, %class.mpz, %class.mpz, %class.mpz }
%class._scoped_numeral_vector = type { %class.svector.1, ptr }

; Function Attrs: mustprogress nounwind uwtable
define linkonce_odr hidden void @_ZN6vectorI3mpzLb0EjEC2Ev(ptr noundef nonnull align 8 dereferenceable(8) %0) unnamed_addr #5 comdat align 2 {
  %2 = alloca ptr, align 8
  store ptr %0, ptr %2, align 8, !tbaa !40
  %3 = load ptr, ptr %2, align 8
  %4 = getelementptr inbounds nuw %class.vector.2, ptr %3, i32 0, i32 0
  store ptr null, ptr %4, align 8, !tbaa !44
  ret void
}

; Function Attrs: mustprogress nounwind uwtable
define linkonce_odr hidden void @_ZN7svectorI3mpzjEC2Ev(ptr noundef nonnull align 8 dereferenceable(8) %0) unnamed_addr #5 comdat align 2 {
  %2 = alloca ptr, align 8
  store ptr %0, ptr %2, align 8, !tbaa !38
  %3 = load ptr, ptr %2, align 8
  call void @_ZN6vectorI3mpzLb0EjEC2Ev(ptr noundef nonnull align 8 dereferenceable(8) %3) #3
  ret void
}

; Function Attrs: mustprogress nounwind uwtable
define linkonce_odr hidden noundef ptr @_ZNK6vectorI3mpzLb0EjE4dataEv(ptr noundef nonnull align 8 dereferenceable(8) %0) #5 comdat align 2 {
  %2 = alloca ptr, align 8
  store ptr %0, ptr %2, align 8, !tbaa !40
  %3 = load ptr, ptr %2, align 8
  %4 = getelementptr inbounds nuw %class.vector.2, ptr %3, i32 0, i32 0
  %5 = load ptr, ptr %4, align 8, !tbaa !44
  ret ptr %5
}

; Function Attrs: mustprogress nounwind uwtable
define linkonce_odr hidden noundef i32 @_ZNK6vectorI3mpzLb0EjE4sizeEv(ptr noundef nonnull align 8 dereferenceable(8) %0) #5 comdat align 2 {
  %2 = alloca i32, align 4
  %3 = alloca ptr, align 8
  store ptr %0, ptr %3, align 8, !tbaa !40
  %4 = load ptr, ptr %3, align 8
  %5 = getelementptr inbounds nuw %class.vector.2, ptr %4, i32 0, i32 0
  %6 = load ptr, ptr %5, align 8, !tbaa !44
  %7 = icmp eq ptr %6, null
  br i1 %7, label %8, label %9

8:                                                ; preds = %1
  store i32 0, ptr %2, align 4
  br label %14

9:                                                ; preds = %1
  %10 = getelementptr inbounds nuw %class.vector.2, ptr %4, i32 0, i32 0
  %11 = load ptr, ptr %10, align 8, !tbaa !44
  %12 = getelementptr inbounds i32, ptr %11, i64 -1
  %13 = load i32, ptr %12, align 4, !tbaa !33
  store i32 %13, ptr %2, align 4
  br label %14

14:                                               ; preds = %9, %8
  %15 = load i32, ptr %2, align 4
  ret i32 %15
}

; Function Attrs: mustprogress uwtable
define hidden void @_ZN11upolynomial12core_manager9normalizeER7svectorI3mpzjE(ptr noundef nonnull align 8 dereferenceable(272) %0, ptr noundef nonnull align 8 dereferenceable(8) %1) #4 align 2 {
  %3 = alloca ptr, align 8
  %4 = alloca ptr, align 8
  store ptr %0, ptr %3, align 8, !tbaa !8
  store ptr %1, ptr %4, align 8, !tbaa !38
  %5 = load ptr, ptr %3, align 8
  %6 = load ptr, ptr %4, align 8, !tbaa !38
  %7 = call noundef i32 @_ZNK6vectorI3mpzLb0EjE4sizeEv(ptr noundef nonnull align 8 dereferenceable(8) %6)
  %8 = load ptr, ptr %4, align 8, !tbaa !38
  %9 = call noundef ptr @_ZNK6vectorI3mpzLb0EjE4dataEv(ptr noundef nonnull align 8 dereferenceable(8) %8)
  call void @_ZN11upolynomial12core_manager9normalizeEjP3mpz(ptr noundef nonnull align 8 dereferenceable(272) %5, i32 noundef %7, ptr noundef %9)
  ret void
}

; Function Attrs: mustprogress nounwind uwtable
define linkonce_odr hidden void @_ZN22_scoped_numeral_vectorI13mpzzp_managerEC2ERS0_(ptr noundef nonnull align 8 dereferenceable(16) %0, ptr noundef nonnull align 8 dereferenceable(136) %1) unnamed_addr #5 comdat align 2 {
  %3 = alloca ptr, align 8
  %4 = alloca ptr, align 8
  store ptr %0, ptr %3, align 8, !tbaa !132
  store ptr %1, ptr %4, align 8, !tbaa !31
  %5 = load ptr, ptr %3, align 8
  call void @_ZN7svectorI3mpzjEC2Ev(ptr noundef nonnull align 8 dereferenceable(8) %5) #3
  %6 = getelementptr inbounds nuw %class._scoped_numeral_vector, ptr %5, i32 0, i32 1
  %7 = load ptr, ptr %4, align 8, !tbaa !31
  store ptr %7, ptr %6, align 8, !tbaa !31
  ret void
}

; Function Attrs: mustprogress nounwind uwtable
define linkonce_odr hidden noundef nonnull align 8 dereferenceable(136) ptr @_ZNK11upolynomial12core_manager1mEv(ptr noundef nonnull align 8 dereferenceable(272) %0) #5 comdat align 2 {
  %2 = alloca ptr, align 8
  store ptr %0, ptr %2, align 8, !tbaa !8
  %3 = load ptr, ptr %2, align 8
  %4 = getelementptr inbounds nuw %"class.upolynomial::core_manager", ptr %3, i32 0, i32 1
  ret ptr %4
}

; Function Attrs: mustprogress uwtable
define hidden void @_ZN11upolynomial7manager17drs_isolate_rootsEjPK3mpzR12mpbq_managerR7svectorI4mpbqjES9_S9_(ptr noundef nonnull align 8 dereferenceable(312) %0, i32 noundef %1, ptr noundef %2, ptr noundef nonnull align 8 dereferenceable(208) %3, ptr noundef nonnull align 8 dereferenceable(8) %4, ptr noundef nonnull align 8 dereferenceable(8) %5, ptr noundef nonnull align 8 dereferenceable(8) %6) #4 align 2 personality ptr @__gxx_personality_v0 {
  %8 = alloca ptr, align 8
  %9 = alloca i32, align 4
  %10 = alloca ptr, align 8
  %11 = alloca ptr, align 8
  %12 = alloca ptr, align 8
  %13 = alloca ptr, align 8
  %14 = alloca ptr, align 8
  %15 = alloca %class._scoped_numeral_vector, align 8
  %16 = alloca ptr, align 8
  %17 = alloca i32, align 4
  %18 = alloca i32, align 4
  %19 = alloca i32, align 4
  store ptr %0, ptr %8, align 8, !tbaa !144
  store i32 %1, ptr %9, align 4, !tbaa !33
  store ptr %2, ptr %10, align 8, !tbaa !26
  store ptr %3, ptr %11, align 8, !tbaa !159
  store ptr %4, ptr %12, align 8, !tbaa !215
  store ptr %5, ptr %13, align 8, !tbaa !215
  store ptr %6, ptr %14, align 8, !tbaa !215
  %20 = load ptr, ptr %8, align 8
  call void @llvm.lifetime.start.p0(i64 16, ptr %15) #3
  %21 = call noundef nonnull align 8 dereferenceable(136) ptr @_ZNK11upolynomial12core_manager1mEv(ptr noundef nonnull align 8 dereferenceable(272) %20)
  call void @_ZN22_scoped_numeral_vectorI13mpzzp_managerEC2ERS0_(ptr noundef nonnull align 8 dereferenceable(16) %15, ptr noundef nonnull align 8 dereferenceable(136) %21)
  %22 = load i32, ptr %9, align 4, !tbaa !33
  %23 = load ptr, ptr %10, align 8, !tbaa !26
  invoke void @_ZN11upolynomial12core_manager3setEjPK3mpzR7svectorIS1_jE(ptr noundef nonnull align 8 dereferenceable(272) %20, i32 noundef %22, ptr noundef %23, ptr noundef nonnull align 8 dereferenceable(8) %15)
          to label %24 unwind label %45

24:                                               ; preds = %7
  invoke void @_ZN11upolynomial12core_manager9normalizeER7svectorI3mpzjE(ptr noundef nonnull align 8 dereferenceable(272) %20, ptr noundef nonnull align 8 dereferenceable(8) %15)
          to label %25 unwind label %45

25:                                               ; preds = %24
  call void @llvm.lifetime.start.p0(i64 4, ptr %18) #3
  %26 = load i32, ptr %9, align 4, !tbaa !33
  %27 = load ptr, ptr %10, align 8, !tbaa !26
  %28 = invoke noundef i32 @_ZN11upolynomial7manager31knuth_positive_root_upper_boundEjPK3mpz(ptr noundef nonnull align 8 dereferenceable(312) %20, i32 noundef %26, ptr noundef %27)
          to label %29 unwind label %49

29:                                               ; preds = %25
  store i32 %28, ptr %18, align 4, !tbaa !33
  call void @llvm.lifetime.start.p0(i64 4, ptr %19) #3
  %30 = load i32, ptr %9, align 4, !tbaa !33
  %31 = load ptr, ptr %10, align 8, !tbaa !26
  %32 = invoke noundef i32 @_ZN11upolynomial7manager31knuth_negative_root_upper_boundEjPK3mpz(ptr noundef nonnull align 8 dereferenceable(312) %20, i32 noundef %30, ptr noundef %31)
          to label %33 unwind label %53

33:                                               ; preds = %29
  store i32 %32, ptr %19, align 4, !tbaa !33
  %34 = invoke noundef i32 @_ZNK6vectorI3mpzLb0EjE4sizeEv(ptr noundef nonnull align 8 dereferenceable(8) %15)
          to label %35 unwind label %53

35:                                               ; preds = %33
  %36 = invoke noundef ptr @_ZNK6vectorI3mpzLb0EjE4dataEv(ptr noundef nonnull align 8 dereferenceable(8) %15)
          to label %37 unwind label %53

37:                                               ; preds = %35
  %38 = load i32, ptr %19, align 4, !tbaa !33
  %39 = load i32, ptr %18, align 4, !tbaa !33
  %40 = load ptr, ptr %11, align 8, !tbaa !159
  %41 = load ptr, ptr %12, align 8, !tbaa !215
  %42 = load ptr, ptr %13, align 8, !tbaa !215
  %43 = load ptr, ptr %14, align 8, !tbaa !215
  invoke void @_ZN11upolynomial7manager17drs_isolate_rootsEjP3mpzjjR12mpbq_managerR7svectorI4mpbqjES8_S8_(ptr noundef nonnull align 8 dereferenceable(312) %20, i32 noundef %34, ptr noundef %36, i32 noundef %38, i32 noundef %39, ptr noundef nonnull align 8 dereferenceable(208) %40, ptr noundef nonnull align 8 dereferenceable(8) %41, ptr noundef nonnull align 8 dereferenceable(8) %42, ptr noundef nonnull align 8 dereferenceable(8) %43)
          to label %44 unwind label %53

44:                                               ; preds = %37
  call void @llvm.lifetime.end.p0(i64 4, ptr %19) #3
  call void @llvm.lifetime.end.p0(i64 4, ptr %18) #3
  call void @_ZN22_scoped_numeral_vectorI13mpzzp_managerED2Ev(ptr noundef nonnull align 8 dereferenceable(16) %15) #3
  call void @llvm.lifetime.end.p0(i64 16, ptr %15) #3
  ret void

45:                                               ; preds = %24, %7
  %46 = landingpad { ptr, i32 }
          cleanup
  %47 = extractvalue { ptr, i32 } %46, 0
  store ptr %47, ptr %16, align 8
  %48 = extractvalue { ptr, i32 } %46, 1
  store i32 %48, ptr %17, align 4
  br label %58

49:                                               ; preds = %25
  %50 = landingpad { ptr, i32 }
          cleanup
  %51 = extractvalue { ptr, i32 } %50, 0
  store ptr %51, ptr %16, align 8
  %52 = extractvalue { ptr, i32 } %50, 1
  store i32 %52, ptr %17, align 4
  br label %57

53:                                               ; preds = %37, %35, %33, %29
  %54 = landingpad { ptr, i32 }
          cleanup
  %55 = extractvalue { ptr, i32 } %54, 0
  store ptr %55, ptr %16, align 8
  %56 = extractvalue { ptr, i32 } %54, 1
  store i32 %56, ptr %17, align 4
  call void @llvm.lifetime.end.p0(i64 4, ptr %19) #3
  br label %57

57:                                               ; preds = %53, %49
  call void @llvm.lifetime.end.p0(i64 4, ptr %18) #3
  br label %58

58:                                               ; preds = %57, %45
  call void @_ZN22_scoped_numeral_vectorI13mpzzp_managerED2Ev(ptr noundef nonnull align 8 dereferenceable(16) %15) #3
  call void @llvm.lifetime.end.p0(i64 16, ptr %15) #3
  br label %59

59:                                               ; preds = %58
  %60 = load ptr, ptr %16, align 8
  %61 = load i32, ptr %17, align 4
  %62 = insertvalue { ptr, i32 } poison, ptr %60, 0
  %63 = insertvalue { ptr, i32 } %62, i32 %61, 1
  resume { ptr, i32 } %63
}