; Function Attrs: mustprogress uwtable
define hidden void @_ZN11upolynomial7manager17drs_isolate_rootsEjPK3mpzR12mpbq_managerR7svectorI4mpbqjES9_S9_(ptr noundef nonnull align 8 dereferenceable(312) %0, i32 noundef %1, ptr noundef %2, ptr noundef nonnull align 8 dereferenceable(208) %3, ptr noundef nonnull align 8 dereferenceable(8) %4, ptr noundef nonnull align 8 dereferenceable(8) %5, ptr noundef nonnull align 8 dereferenceable(8) %6) local_unnamed_addr #3 align 2 personality ptr @__gxx_personality_v0 {
  %8 = alloca %class._scoped_numeral_vector, align 8
  call void @llvm.lifetime.start.p0(i64 16, ptr nonnull %8) #25
  %9 = getelementptr inbounds nuw i8, ptr %0, i64 8
  store ptr null, ptr %8, align 8, !tbaa !28
  %10 = getelementptr inbounds nuw i8, ptr %8, i64 8
  store ptr %9, ptr %10, align 8, !tbaa !86
  invoke void @_ZN11upolynomial12core_manager3setEjPK3mpzR7svectorIS1_jE(ptr noundef nonnull align 8 dereferenceable(272) %0, i32 noundef %1, ptr noundef %2, ptr noundef nonnull align 8 dereferenceable(8) %8)
          to label %11 unwind label %44

11:                                               ; preds = %7
  %12 = load ptr, ptr %8, align 8, !tbaa !28
  %13 = icmp eq ptr %12, null
  br i1 %13, label %_ZNK6vectorI3mpzLb0EjE4sizeEv.exit.i, label %14

14:                                               ; preds = %11
  %15 = getelementptr inbounds i8, ptr %12, i64 -4
  %16 = load i32, ptr %15, align 4, !tbaa !27
  br label %_ZNK6vectorI3mpzLb0EjE4sizeEv.exit.i

_ZNK6vectorI3mpzLb0EjE4sizeEv.exit.i:             ; preds = %14, %11
  %.0.i.i = phi i32 [ %16, %14 ], [ 0, %11 ]
  invoke void @_ZN11upolynomial12core_manager9normalizeEjP3mpz(ptr noundef nonnull align 8 dereferenceable(272) %0, i32 noundef %.0.i.i, ptr noundef %12)
          to label %_ZN11upolynomial12core_manager9normalizeER7svectorI3mpzjE.exit unwind label %44

_ZN11upolynomial12core_manager9normalizeER7svectorI3mpzjE.exit: ; preds = %_ZNK6vectorI3mpzLb0EjE4sizeEv.exit.i
  %17 = invoke noundef i32 @_ZN11upolynomial7manager31knuth_positive_root_upper_boundEjPK3mpz(ptr noundef nonnull align 8 dereferenceable(312) %0, i32 noundef %1, ptr noundef %2)
          to label %18 unwind label %46

18:                                               ; preds = %_ZN11upolynomial12core_manager9normalizeER7svectorI3mpzjE.exit
  %19 = invoke noundef i32 @_ZN11upolynomial7manager31knuth_negative_root_upper_boundEjPK3mpz(ptr noundef nonnull align 8 dereferenceable(312) %0, i32 noundef %1, ptr noundef %2)
          to label %20 unwind label %48

20:                                               ; preds = %18
  %21 = load ptr, ptr %8, align 8, !tbaa !28
  %22 = icmp eq ptr %21, null
  br i1 %22, label %_ZNK6vectorI3mpzLb0EjE4sizeEv.exit, label %23

23:                                               ; preds = %20
  %24 = getelementptr inbounds i8, ptr %21, i64 -4
  %25 = load i32, ptr %24, align 4, !tbaa !27
  br label %_ZNK6vectorI3mpzLb0EjE4sizeEv.exit

_ZNK6vectorI3mpzLb0EjE4sizeEv.exit:               ; preds = %20, %23
  %.0.i = phi i32 [ %25, %23 ], [ 0, %20 ]
  invoke void @_ZN11upolynomial7manager17drs_isolate_rootsEjP3mpzjjR12mpbq_managerR7svectorI4mpbqjES8_S8_(ptr noundef nonnull align 8 dereferenceable(312) %0, i32 noundef %.0.i, ptr noundef %21, i32 noundef %19, i32 noundef %17, ptr noundef nonnull align 8 dereferenceable(208) %3, ptr noundef nonnull align 8 dereferenceable(8) %4, ptr noundef nonnull align 8 dereferenceable(8) %5, ptr noundef nonnull align 8 dereferenceable(8) %6)
          to label %26 unwind label %48

26:                                               ; preds = %_ZNK6vectorI3mpzLb0EjE4sizeEv.exit
  %27 = load ptr, ptr %8, align 8, !tbaa !28
  %28 = icmp eq ptr %27, null
  br i1 %28, label %_ZN22_scoped_numeral_vectorI13mpzzp_managerED2Ev.exit, label %_ZNK6vectorI3mpzLb0EjE4sizeEv.exit.i.i

_ZNK6vectorI3mpzLb0EjE4sizeEv.exit.i.i:           ; preds = %26
  %29 = getelementptr inbounds i8, ptr %27, i64 -4
  %30 = load i32, ptr %29, align 4, !tbaa !27
  %.not.i.i = icmp eq i32 %30, 0
  br i1 %.not.i.i, label %_ZN22_scoped_numeral_vectorI13mpzzp_managerE5resetEv.exit.i, label %.lr.ph.i.i

.lr.ph.i.i:                                       ; preds = %_ZNK6vectorI3mpzLb0EjE4sizeEv.exit.i.i
  %wide.trip.count.i.i = zext i32 %30 to i64
  br label %32

._crit_edge.i.i:                                  ; preds = %.noexc.i
  %.pre.i.i = load ptr, ptr %8, align 8, !tbaa !28
  %.not.i.i.i = icmp eq ptr %.pre.i.i, null
  br i1 %.not.i.i.i, label %_ZN22_scoped_numeral_vectorI13mpzzp_managerED2Ev.exit, label %_ZN22_scoped_numeral_vectorI13mpzzp_managerE5resetEv.exit.thread3.i

_ZN22_scoped_numeral_vectorI13mpzzp_managerE5resetEv.exit.thread3.i: ; preds = %._crit_edge.i.i
  %31 = getelementptr inbounds i8, ptr %.pre.i.i, i64 -4
  store i32 0, ptr %31, align 4, !tbaa !27
  br label %_ZN22_scoped_numeral_vectorI13mpzzp_managerE5resetEv.exit.i

32:                                               ; preds = %.noexc.i, %.lr.ph.i.i
  %indvars.iv.i.i = phi i64 [ 0, %.lr.ph.i.i ], [ %indvars.iv.next.i.i, %.noexc.i ]
  %33 = load ptr, ptr %10, align 8, !tbaa !117
  %34 = load ptr, ptr %8, align 8, !tbaa !28
  %35 = getelementptr inbounds nuw %class.mpz, ptr %34, i64 %indvars.iv.i.i
  %36 = load ptr, ptr %33, align 8, !tbaa !33
  invoke void @_ZN11mpz_managerILb0EE3delEPS0_R3mpz(ptr noundef nonnull align 8 dereferenceable(600) %36, ptr noundef nonnull align 8 dereferenceable(16) %35)
          to label %.noexc.i unwind label %41

.noexc.i:                                         ; preds = %32
  %indvars.iv.next.i.i = add nuw nsw i64 %indvars.iv.i.i, 1
  %exitcond.not.i.i = icmp eq i64 %indvars.iv.next.i.i, %wide.trip.count.i.i
  br i1 %exitcond.not.i.i, label %._crit_edge.i.i, label %32, !llvm.loop !119

_ZN22_scoped_numeral_vectorI13mpzzp_managerE5resetEv.exit.i: ; preds = %_ZN22_scoped_numeral_vectorI13mpzzp_managerE5resetEv.exit.thread3.i, %_ZNK6vectorI3mpzLb0EjE4sizeEv.exit.i.i
  %.pr6.i = phi ptr [ %.pre.i.i, %_ZN22_scoped_numeral_vectorI13mpzzp_managerE5resetEv.exit.thread3.i ], [ %27, %_ZNK6vectorI3mpzLb0EjE4sizeEv.exit.i.i ]
  %37 = getelementptr inbounds i8, ptr %.pr6.i, i64 -8
  invoke void @_ZN6memory10deallocateEPv(ptr noundef nonnull %37)
          to label %_ZN22_scoped_numeral_vectorI13mpzzp_managerED2Ev.exit unwind label %38

38:                                               ; preds = %_ZN22_scoped_numeral_vectorI13mpzzp_managerE5resetEv.exit.i
  %39 = landingpad { ptr, i32 }
          catch ptr null
  %40 = extractvalue { ptr, i32 } %39, 0
  call void @__clang_call_terminate(ptr %40) #26
  unreachable

41:                                               ; preds = %32
  %42 = landingpad { ptr, i32 }
          catch ptr null
  %43 = extractvalue { ptr, i32 } %42, 0
  call void @__clang_call_terminate(ptr %43) #26
  unreachable

_ZN22_scoped_numeral_vectorI13mpzzp_managerED2Ev.exit: ; preds = %26, %._crit_edge.i.i, %_ZN22_scoped_numeral_vectorI13mpzzp_managerE5resetEv.exit.i
  call void @llvm.lifetime.end.p0(i64 16, ptr nonnull %8) #25
  ret void

44:                                               ; preds = %_ZNK6vectorI3mpzLb0EjE4sizeEv.exit.i, %7
  %45 = landingpad { ptr, i32 }
          cleanup
  br label %50

46:                                               ; preds = %_ZN11upolynomial12core_manager9normalizeER7svectorI3mpzjE.exit
  %47 = landingpad { ptr, i32 }
          cleanup
  br label %50

48:                                               ; preds = %_ZNK6vectorI3mpzLb0EjE4sizeEv.exit, %18
  %49 = landingpad { ptr, i32 }
          cleanup
  br label %50

50:                                               ; preds = %46, %48, %44
  %.pn.pn = phi { ptr, i32 } [ %45, %44 ], [ %49, %48 ], [ %47, %46 ]
  call void @_ZN22_scoped_numeral_vectorI13mpzzp_managerED2Ev(ptr noundef nonnull align 8 dereferenceable(16) %8) #25
  call void @llvm.lifetime.end.p0(i64 16, ptr nonnull %8) #25
  resume { ptr, i32 } %.pn.pn
}